target datalayout = "e-m:e-p270:32:32-p271:32:32-p272:64:64-i64:64-i128:128-f80:128-n8:16:32:64-S128"
target triple = "x86_64-pc-linux-gnu"

%"class.std::codecvt" = type { %"class.std::__codecvt_abstract_base.base", ptr }
%"class.std::__codecvt_abstract_base.base" = type { %"class.std::locale::facet.base" }
%"class.std::locale::facet.base" = type <{ ptr, i32 }>
%"class.std::__cxx11::basic_string" = type { %"struct.std::__cxx11::basic_string<wchar_t>::_Alloc_hider", i64, %union.anon }
%"struct.std::__cxx11::basic_string<wchar_t>::_Alloc_hider" = type { ptr }
%union.anon = type { i64, [8 x i8] }
%"class.boost::archive::iterators::mb_from_wchar.44" = type <{ %"class.boost::iterators::iterator_adaptor.45", %"struct.boost::archive::detail::utf8_codecvt_facet", %struct.__mbstate_t, [9 x i8], [7 x i8], i64, i64, i8, [7 x i8] }>
%"class.boost::iterators::iterator_adaptor.45" = type { %"class.__gnu_cxx::__normal_iterator.48" }
%"class.__gnu_cxx::__normal_iterator.48" = type { ptr }
%"struct.boost::archive::detail::utf8_codecvt_facet" = type { %"class.std::codecvt" }
%struct.__mbstate_t = type { i32, %union.anon.43 }
%union.anon.43 = type { i32 }

; Function Attrs: mustprogress nounwind uwtable
define linkonce_odr hidden void @_ZN5boost9iterators16iterator_adaptorINS_7archive9iterators13mb_from_wcharIN9__gnu_cxx17__normal_iteratorIPKwNSt7__cxx1112basic_stringIwSt11char_traitsIwESaIwEEEEEEESF_wNS0_25single_pass_traversal_tagEcNS_11use_defaultEEC2ERKSF_(ptr noundef nonnull align 8 dereferenceable(8) %0, ptr noundef nonnull align 8 dereferenceable(8) %1) unnamed_addr #0 comdat align 2 {
  %3 = alloca ptr, align 8
  %4 = alloca ptr, align 8
  store ptr %0, ptr %3, align 8, !tbaa !3
  store ptr %1, ptr %4, align 8, !tbaa !3
  %5 = load ptr, ptr %3, align 8
  %6 = getelementptr inbounds nuw %"class.boost::iterators::iterator_adaptor.45", ptr %5, i32 0, i32 0
  %7 = load ptr, ptr %4, align 8, !tbaa !3
  call void @llvm.memcpy.p0.p0.i64(ptr align 8 %6, ptr align 8 %7, i64 8, i1 false), !tbaa.struct !40
  ret void
}

; Function Attrs: noinline noreturn nounwind uwtable
define linkonce_odr hidden void @__clang_call_terminate(ptr noundef %0) #13 comdat {
  %2 = call ptr @__cxa_begin_catch(ptr %0) #15
  call void @_ZSt9terminatev() #21
  unreachable
}

; Function Attrs: mustprogress nounwind uwtable
define linkonce_odr hidden void @_ZN9__gnu_cxx17__normal_iteratorIPKwNSt7__cxx1112basic_stringIwSt11char_traitsIwESaIwEEEEC2ERKS2_(ptr noundef nonnull align 8 dereferenceable(8) %0, ptr noundef nonnull align 8 dereferenceable(8) %1) unnamed_addr #0 comdat align 2 {
  %3 = alloca ptr, align 8
  %4 = alloca ptr, align 8
  store ptr %0, ptr %3, align 8, !tbaa !3
  store ptr %1, ptr %4, align 8, !tbaa !3
  %5 = load ptr, ptr %3, align 8
  %6 = getelementptr inbounds nuw %"class.__gnu_cxx::__normal_iterator.48", ptr %5, i32 0, i32 0
  %7 = load ptr, ptr %4, align 8, !tbaa !3
  %8 = load ptr, ptr %7, align 8, !tbaa !3
  store ptr %8, ptr %6, align 8, !tbaa !92
  ret void
}

; Function Attrs: mustprogress nounwind uwtable
define available_externally noundef ptr @_ZNKSt7__cxx1112basic_stringIwSt11char_traitsIwESaIwEE7_M_dataEv(ptr noundef nonnull align 8 dereferenceable(32) %0) #0 align 2 {
  %2 = alloca ptr, align 8
  store ptr %0, ptr %2, align 8, !tbaa !3
  %3 = load ptr, ptr %2, align 8
  %4 = getelementptr inbounds nuw %"class.std::__cxx11::basic_string", ptr %3, i32 0, i32 0
  %5 = getelementptr inbounds nuw %"struct.std::__cxx11::basic_string<wchar_t>::_Alloc_hider", ptr %4, i32 0, i32 0
  %6 = load ptr, ptr %5, align 8, !tbaa !93
  ret ptr %6
}

; Function Attrs: mustprogress nounwind uwtable
define available_externally noundef i64 @_ZNKSt7__cxx1112basic_stringIwSt11char_traitsIwESaIwEE4sizeEv(ptr noundef nonnull align 8 dereferenceable(32) %0) #0 align 2 {
  %2 = alloca ptr, align 8
  store ptr %0, ptr %2, align 8, !tbaa !3
  %3 = load ptr, ptr %2, align 8
  %4 = getelementptr inbounds nuw %"class.std::__cxx11::basic_string", ptr %3, i32 0, i32 1
  %5 = load i64, ptr %4, align 8, !tbaa !37
  ret i64 %5
}

; Function Attrs: inlinehint mustprogress nounwind uwtable
define linkonce_odr hidden void @_ZN5boost7archive9iterators13mb_from_wcharIN9__gnu_cxx17__normal_iteratorIPKwNSt7__cxx1112basic_stringIwSt11char_traitsIwESaIwEEEEEED2Ev(ptr noundef nonnull align 8 dereferenceable(73) %0) unnamed_addr #11 comdat align 2 {
  %2 = alloca ptr, align 8
  store ptr %0, ptr %2, align 8, !tbaa !3
  %3 = load ptr, ptr %2, align 8
  %4 = getelementptr inbounds nuw %"class.boost::archive::iterators::mb_from_wchar.44", ptr %3, i32 0, i32 1
  call void @_ZN5boost7archive6detail18utf8_codecvt_facetD1Ev(ptr noundef nonnull align 8 dereferenceable(24) %4) #15
  ret void
}

; Function Attrs: mustprogress nounwind uwtable
define available_externally ptr @_ZNKSt7__cxx1112basic_stringIwSt11char_traitsIwESaIwEE3endEv(ptr noundef nonnull align 8 dereferenceable(32) %0) #0 align 2 {
  %2 = alloca %"class.__gnu_cxx::__normal_iterator.48", align 8
  %3 = alloca ptr, align 8
  %4 = alloca ptr, align 8
  store ptr %0, ptr %3, align 8, !tbaa !3
  %5 = load ptr, ptr %3, align 8
  call void @llvm.lifetime.start.p0(i64 8, ptr %4) #15
  %6 = call noundef ptr @_ZNKSt7__cxx1112basic_stringIwSt11char_traitsIwESaIwEE7_M_dataEv(ptr noundef nonnull align 8 dereferenceable(32) %5)
  %7 = call noundef i64 @_ZNKSt7__cxx1112basic_stringIwSt11char_traitsIwESaIwEE4sizeEv(ptr noundef nonnull align 8 dereferenceable(32) %5) #15
  %8 = getelementptr inbounds nuw i32, ptr %6, i64 %7
  store ptr %8, ptr %4, align 8, !tbaa !3
  call void @_ZN9__gnu_cxx17__normal_iteratorIPKwNSt7__cxx1112basic_stringIwSt11char_traitsIwESaIwEEEEC2ERKS2_(ptr noundef nonnull align 8 dereferenceable(8) %2, ptr noundef nonnull align 8 dereferenceable(8) %4) #15
  call void @llvm.lifetime.end.p0(i64 8, ptr %4) #15
  %9 = getelementptr inbounds nuw %"class.__gnu_cxx::__normal_iterator.48", ptr %2, i32 0, i32 0
  %10 = load ptr, ptr %9, align 8
  ret ptr %10
}

; Function Attrs: mustprogress uwtable
define linkonce_odr hidden void @_ZN5boost7archive9iterators13mb_from_wcharIN9__gnu_cxx17__normal_iteratorIPKwNSt7__cxx1112basic_stringIwSt11char_traitsIwESaIwEEEEEEC2ISD_EET_(ptr noundef nonnull align 8 dereferenceable(73) %0, ptr %1) unnamed_addr #3 comdat align 2 {
  %3 = alloca %"class.__gnu_cxx::__normal_iterator.48", align 8
  %4 = alloca ptr, align 8
  %5 = alloca %"class.__gnu_cxx::__normal_iterator.48", align 8
  %6 = getelementptr inbounds nuw %"class.__gnu_cxx::__normal_iterator.48", ptr %3, i32 0, i32 0
  store ptr %1, ptr %6, align 8
  store ptr %0, ptr %4, align 8, !tbaa !3
  %7 = load ptr, ptr %4, align 8
  call void @llvm.lifetime.start.p0(i64 8, ptr %5) #15
  call void @llvm.memcpy.p0.p0.i64(ptr align 8 %5, ptr align 8 %3, i64 8, i1 false), !tbaa.struct !40
  call void @_ZN5boost9iterators16iterator_adaptorINS_7archive9iterators13mb_from_wcharIN9__gnu_cxx17__normal_iteratorIPKwNSt7__cxx1112basic_stringIwSt11char_traitsIwESaIwEEEEEEESF_wNS0_25single_pass_traversal_tagEcNS_11use_defaultEEC2ERKSF_(ptr noundef nonnull align 8 dereferenceable(8) %7, ptr noundef nonnull align 8 dereferenceable(8) %5)
  call void @llvm.lifetime.end.p0(i64 8, ptr %5) #15
  %8 = getelementptr inbounds nuw %"class.boost::archive::iterators::mb_from_wchar.44", ptr %7, i32 0, i32 1
  call void @_ZN5boost7archive6detail18utf8_codecvt_facetC1Em(ptr noundef nonnull align 8 dereferenceable(24) %8, i64 noundef 0)
  %9 = getelementptr inbounds nuw %"class.boost::archive::iterators::mb_from_wchar.44", ptr %7, i32 0, i32 2
  call void @llvm.memset.p0.i64(ptr align 8 %9, i8 0, i64 8, i1 false)
  %10 = getelementptr inbounds nuw %"class.boost::archive::iterators::mb_from_wchar.44", ptr %7, i32 0, i32 5
  store i64 0, ptr %10, align 8, !tbaa !83
  %11 = getelementptr inbounds nuw %"class.boost::archive::iterators::mb_from_wchar.44", ptr %7, i32 0, i32 6
  store i64 0, ptr %11, align 8, !tbaa !87
  %12 = getelementptr inbounds nuw %"class.boost::archive::iterators::mb_from_wchar.44", ptr %7, i32 0, i32 7
  store i8 0, ptr %12, align 8, !tbaa !88
  ret void
}

; Function Attrs: mustprogress nounwind uwtable
define available_externally ptr @_ZNKSt7__cxx1112basic_stringIwSt11char_traitsIwESaIwEE5beginEv(ptr noundef nonnull align 8 dereferenceable(32) %0) #0 align 2 personality ptr @__gxx_personality_v0 {
  %2 = alloca %"class.__gnu_cxx::__normal_iterator.48", align 8
  %3 = alloca ptr, align 8
  %4 = alloca ptr, align 8
  store ptr %0, ptr %3, align 8, !tbaa !3
  %5 = load ptr, ptr %3, align 8
  call void @llvm.lifetime.start.p0(i64 8, ptr %4) #15
  %6 = invoke noundef ptr @_ZNKSt7__cxx1112basic_stringIwSt11char_traitsIwESaIwEE7_M_dataEv(ptr noundef nonnull align 8 dereferenceable(32) %5)
          to label %7 unwind label %10

7:                                                ; preds = %1
  store ptr %6, ptr %4, align 8, !tbaa !3
  call void @_ZN9__gnu_cxx17__normal_iteratorIPKwNSt7__cxx1112basic_stringIwSt11char_traitsIwESaIwEEEEC2ERKS2_(ptr noundef nonnull align 8 dereferenceable(8) %2, ptr noundef nonnull align 8 dereferenceable(8) %4) #15
  call void @llvm.lifetime.end.p0(i64 8, ptr %4) #15
  %8 = getelementptr inbounds nuw %"class.__gnu_cxx::__normal_iterator.48", ptr %2, i32 0, i32 0
  %9 = load ptr, ptr %8, align 8
  ret ptr %9

10:                                               ; preds = %1
  %11 = landingpad { ptr, i32 }
          catch ptr null
  %12 = extractvalue { ptr, i32 } %11, 0
  call void @__clang_call_terminate(ptr %12) #21
  unreachable
}

; Function Attrs: mustprogress uwtable
define internal void @_ZN5boost7archive12_GLOBAL__N_111copy_to_ptrEPcRKNSt7__cxx1112basic_stringIwSt11char_traitsIwESaIwEEE(ptr noundef %0, ptr noundef nonnull align 8 dereferenceable(32) %1) #3 personality ptr @__gxx_personality_v0 {
  %3 = alloca ptr, align 8
  %4 = alloca ptr, align 8
  %5 = alloca %"class.boost::archive::iterators::mb_from_wchar.44", align 8
  %6 = alloca %"class.__gnu_cxx::__normal_iterator.48", align 8
  %7 = alloca %"class.boost::archive::iterators::mb_from_wchar.44", align 8
  %8 = alloca %"class.__gnu_cxx::__normal_iterator.48", align 8
  %9 = alloca ptr, align 8
  %10 = alloca i32, align 4
  store ptr %0, ptr %3, align 8, !tbaa !3
  store ptr %1, ptr %4, align 8, !tbaa !3
  %11 = load ptr, ptr %4, align 8, !tbaa !3
  %12 = call ptr @_ZNKSt7__cxx1112basic_stringIwSt11char_traitsIwESaIwEE5beginEv(ptr noundef nonnull align 8 dereferenceable(32) %11) #15
  %13 = getelementptr inbounds nuw %"class.__gnu_cxx::__normal_iterator.48", ptr %6, i32 0, i32 0
  store ptr %12, ptr %13, align 8
  %14 = getelementptr inbounds nuw %"class.__gnu_cxx::__normal_iterator.48", ptr %6, i32 0, i32 0
  %15 = load ptr, ptr %14, align 8
  call void @_ZN5boost7archive9iterators13mb_from_wcharIN9__gnu_cxx17__normal_iteratorIPKwNSt7__cxx1112basic_stringIwSt11char_traitsIwESaIwEEEEEEC2ISD_EET_(ptr noundef nonnull align 8 dereferenceable(73) %5, ptr %15)
  %16 = load ptr, ptr %4, align 8, !tbaa !3
  %17 = call ptr @_ZNKSt7__cxx1112basic_stringIwSt11char_traitsIwESaIwEE3endEv(ptr noundef nonnull align 8 dereferenceable(32) %16) #15
  %18 = getelementptr inbounds nuw %"class.__gnu_cxx::__normal_iterator.48", ptr %8, i32 0, i32 0
  store ptr %17, ptr %18, align 8
  %19 = getelementptr inbounds nuw %"class.__gnu_cxx::__normal_iterator.48", ptr %8, i32 0, i32 0
  %20 = load ptr, ptr %19, align 8
  invoke void @_ZN5boost7archive9iterators13mb_from_wcharIN9__gnu_cxx17__normal_iteratorIPKwNSt7__cxx1112basic_stringIwSt11char_traitsIwESaIwEEEEEEC2ISD_EET_(ptr noundef nonnull align 8 dereferenceable(73) %7, ptr %20)
          to label %21 unwind label %29

21:                                               ; preds = %2
  %22 = load ptr, ptr %3, align 8, !tbaa !3
  %23 = invoke noundef ptr @_ZSt4copyIN5boost7archive9iterators13mb_from_wcharIN9__gnu_cxx17__normal_iteratorIPKwNSt7__cxx1112basic_stringIwSt11char_traitsIwESaIwEEEEEEEPcET0_T_SI_SH_(ptr noundef %5, ptr noundef %7, ptr noundef %22)
          to label %24 unwind label %33

24:                                               ; preds = %21
  call void @_ZN5boost7archive9iterators13mb_from_wcharIN9__gnu_cxx17__normal_iteratorIPKwNSt7__cxx1112basic_stringIwSt11char_traitsIwESaIwEEEEEED2Ev(ptr noundef nonnull align 8 dereferenceable(73) %7) #15
  call void @_ZN5boost7archive9iterators13mb_from_wcharIN9__gnu_cxx17__normal_iteratorIPKwNSt7__cxx1112basic_stringIwSt11char_traitsIwESaIwEEEEEED2Ev(ptr noundef nonnull align 8 dereferenceable(73) %5) #15
  %25 = load ptr, ptr %3, align 8, !tbaa !3
  %26 = load ptr, ptr %4, align 8, !tbaa !3
  %27 = call noundef i64 @_ZNKSt7__cxx1112basic_stringIwSt11char_traitsIwESaIwEE4sizeEv(ptr noundef nonnull align 8 dereferenceable(32) %26) #15
  %28 = getelementptr inbounds nuw i8, ptr %25, i64 %27
  store i8 0, ptr %28, align 1, !tbaa !64
  ret void

29:                                               ; preds = %2
  %30 = landingpad { ptr, i32 }
          cleanup
  %31 = extractvalue { ptr, i32 } %30, 0
  store ptr %31, ptr %9, align 8
  %32 = extractvalue { ptr, i32 } %30, 1
  store i32 %32, ptr %10, align 4
  br label %37

33:                                               ; preds = %21
  %34 = landingpad { ptr, i32 }
          cleanup
  %35 = extractvalue { ptr, i32 } %34, 0
  store ptr %35, ptr %9, align 8
  %36 = extractvalue { ptr, i32 } %34, 1
  store i32 %36, ptr %10, align 4
  call void @_ZN5boost7archive9iterators13mb_from_wcharIN9__gnu_cxx17__normal_iteratorIPKwNSt7__cxx1112basic_stringIwSt11char_traitsIwESaIwEEEEEED2Ev(ptr noundef nonnull align 8 dereferenceable(73) %7) #15
  br label %37

37:                                               ; preds = %33, %29
  call void @_ZN5boost7archive9iterators13mb_from_wcharIN9__gnu_cxx17__normal_iteratorIPKwNSt7__cxx1112basic_stringIwSt11char_traitsIwESaIwEEEEEED2Ev(ptr noundef nonnull align 8 dereferenceable(73) %5) #15
  br label %38

38:                                               ; preds = %37
  %39 = load ptr, ptr %9, align 8
  %40 = load i32, ptr %10, align 4
  %41 = insertvalue { ptr, i32 } poison, ptr %39, 0
  %42 = insertvalue { ptr, i32 } %41, i32 %40, 1
  resume { ptr, i32 } %42
}