; Function Attrs: mustprogress uwtable
define internal fastcc void @_ZN5boost7archive12_GLOBAL__N_111copy_to_ptrEPcRKNSt7__cxx1112basic_stringIwSt11char_traitsIwESaIwEEE(ptr noundef %0, ptr nocapture noundef nonnull readonly align 8 dereferenceable(32) %1) unnamed_addr #1 personality ptr @__gxx_personality_v0 {
  %3 = alloca %"class.boost::archive::iterators::mb_from_wchar.44", align 8
  %4 = alloca %"class.boost::archive::iterators::mb_from_wchar.44", align 8
  %5 = load ptr, ptr %1, align 8, !tbaa !47
  %6 = ptrtoint ptr %5 to i64
  store i64 %6, ptr %3, align 8, !tbaa !81
  %7 = getelementptr inbounds nuw i8, ptr %3, i64 8
  call void @_ZN5boost7archive6detail18utf8_codecvt_facetC1Em(ptr noundef nonnull align 8 dereferenceable(24) %7, i64 noundef 0)
  %8 = getelementptr inbounds nuw i8, ptr %3, i64 32
  store i64 0, ptr %8, align 8
  %9 = getelementptr inbounds nuw i8, ptr %3, i64 56
  call void @llvm.memset.p0.i64(ptr noundef nonnull align 8 dereferenceable(17) %9, i8 0, i64 17, i1 false)
  %10 = load ptr, ptr %1, align 8, !tbaa !47
  %11 = getelementptr inbounds nuw i8, ptr %1, i64 8
  %12 = load i64, ptr %11, align 8, !tbaa !44
  %13 = getelementptr inbounds nuw i32, ptr %10, i64 %12
  %14 = ptrtoint ptr %13 to i64
  store i64 %14, ptr %4, align 8, !tbaa !81
  %15 = getelementptr inbounds nuw i8, ptr %4, i64 8
  invoke void @_ZN5boost7archive6detail18utf8_codecvt_facetC1Em(ptr noundef nonnull align 8 dereferenceable(24) %15, i64 noundef 0)
          to label %16 unwind label %23

16:                                               ; preds = %2
  %17 = getelementptr inbounds nuw i8, ptr %4, i64 32
  store i64 0, ptr %17, align 8
  %18 = getelementptr inbounds nuw i8, ptr %4, i64 56
  call void @llvm.memset.p0.i64(ptr noundef nonnull align 8 dereferenceable(17) %18, i8 0, i64 17, i1 false)
  %19 = invoke noundef ptr @_ZSt4copyIN5boost7archive9iterators13mb_from_wcharIN9__gnu_cxx17__normal_iteratorIPKwNSt7__cxx1112basic_stringIwSt11char_traitsIwESaIwEEEEEEEPcET0_T_SI_SH_(ptr noundef nonnull %3, ptr noundef nonnull %4, ptr noundef %0)
          to label %20 unwind label %25

20:                                               ; preds = %16
  call void @_ZN5boost7archive6detail18utf8_codecvt_facetD1Ev(ptr noundef nonnull align 8 dereferenceable(24) %15) #21
  call void @_ZN5boost7archive6detail18utf8_codecvt_facetD1Ev(ptr noundef nonnull align 8 dereferenceable(24) %7) #21
  %21 = load i64, ptr %11, align 8, !tbaa !44
  %22 = getelementptr inbounds nuw i8, ptr %0, i64 %21
  store i8 0, ptr %22, align 1, !tbaa !50
  ret void

23:                                               ; preds = %2
  %24 = landingpad { ptr, i32 }
          cleanup
  br label %27

25:                                               ; preds = %16
  %26 = landingpad { ptr, i32 }
          cleanup
  call void @_ZN5boost7archive6detail18utf8_codecvt_facetD1Ev(ptr noundef nonnull align 8 dereferenceable(24) %15) #21
  br label %27

27:                                               ; preds = %25, %23
  %.pn = phi { ptr, i32 } [ %26, %25 ], [ %24, %23 ]
  call void @_ZN5boost7archive6detail18utf8_codecvt_facetD1Ev(ptr noundef nonnull align 8 dereferenceable(24) %7) #21
  resume { ptr, i32 } %.pn
}